; Function Attrs: mustprogress uwtable
define void @_ZN6icu_7511MeasureUnitC2ERKS0_(ptr noundef nonnull align 8 dereferenceable(19) %this, ptr noundef nonnull align 8 dereferenceable(19) %other) unnamed_addr #1 align 2 personality ptr @__gxx_personality_v0 {
entry:
  store ptr getelementptr inbounds ({ [7 x ptr] }, ptr @_ZTVN6icu_7511MeasureUnitE, i64 0, i32 0, i64 2), ptr %this, align 8
  %fImpl = getelementptr inbounds i8, ptr %this, i64 8
  store ptr null, ptr %fImpl, align 8
  %call = invoke noundef nonnull align 8 dereferenceable(19) ptr @_ZN6icu_7511MeasureUnitaSERKS0_(ptr noundef nonnull align 8 dereferenceable(19) %this, ptr noundef nonnull align 8 dereferenceable(19) %other)
          to label %invoke.cont unwind label %lpad

invoke.cont:                                      ; preds = %entry
  ret void

lpad:                                             ; preds = %entry
  %0 = landingpad { ptr, i32 }
          cleanup
  tail call void @_ZN6icu_757UObjectD2Ev(ptr noundef nonnull align 8 dereferenceable(8) %this) #17
  resume { ptr, i32 } %0
}